target datalayout = "e-m:e-p270:32:32-p271:32:32-p272:64:64-i64:64-i128:128-f80:128-n8:16:32:64-S128"
target triple = "x86_64-pc-linux-gnu"

%struct.PJconsts = type <{ ptr, ptr, ptr, ptr, ptr, ptr, ptr, ptr, ptr, ptr, ptr, ptr, i32, [4 x i8], ptr, ptr, ptr, ptr, ptr, ptr, ptr, ptr, double, double, double, double, double, double, double, double, double, double, double, double, double, double, double, double, double, double, double, double, double, double, i32, i32, i32, i32, i32, i32, i32, i32, i32, i32, i32, [4 x i8], ptr, ptr, ptr, ptr, ptr, ptr, double, double, double, double, double, double, double, double, double, double, double, i32, [4 x i8], [7 x double], i32, [4 x i8], ptr, ptr, double, double, i32, [4 x i8], %"class.std::shared_ptr", i8, [7 x i8], double, i8, [7 x i8], %"class.std::__cxx11::basic_string", %"class.std::__cxx11::basic_string", %"class.std::__cxx11::basic_string", i8, [7 x i8], %"class.std::vector", i32, [4 x i8], %"class.std::vector.3", i32, i8, i8, i8, i8 }>
%"class.std::shared_ptr" = type { %"class.std::__shared_ptr" }
%"class.std::__shared_ptr" = type { ptr, %"class.std::__shared_count" }
%"class.std::__shared_count" = type { ptr }
%"class.std::__cxx11::basic_string" = type { %"struct.std::__cxx11::basic_string<char>::_Alloc_hider", i64, %union.anon }
%"struct.std::__cxx11::basic_string<char>::_Alloc_hider" = type { ptr }
%union.anon = type { i64, [8 x i8] }
%"class.std::vector" = type { %"struct.std::_Vector_base" }
%"struct.std::_Vector_base" = type { %"struct.std::_Vector_base<osgeo::proj::operation::GridDescription, std::allocator<osgeo::proj::operation::GridDescription>>::_Vector_impl" }
%"struct.std::_Vector_base<osgeo::proj::operation::GridDescription, std::allocator<osgeo::proj::operation::GridDescription>>::_Vector_impl" = type { %"struct.std::_Vector_base<osgeo::proj::operation::GridDescription, std::allocator<osgeo::proj::operation::GridDescription>>::_Vector_impl_data" }
%"struct.std::_Vector_base<osgeo::proj::operation::GridDescription, std::allocator<osgeo::proj::operation::GridDescription>>::_Vector_impl_data" = type { ptr, ptr, ptr }
%"class.std::vector.3" = type { %"struct.std::_Vector_base.4" }
%"struct.std::_Vector_base.4" = type { %"struct.std::_Vector_base<PJCoordOperation, std::allocator<PJCoordOperation>>::_Vector_impl" }
%"struct.std::_Vector_base<PJCoordOperation, std::allocator<PJCoordOperation>>::_Vector_impl" = type { %"struct.std::_Vector_base<PJCoordOperation, std::allocator<PJCoordOperation>>::_Vector_impl_data" }
%"struct.std::_Vector_base<PJCoordOperation, std::allocator<PJCoordOperation>>::_Vector_impl_data" = type { ptr, ptr, ptr }
%"struct.(anonymous namespace)::pj_opaque" = type { double, double, double, double, ptr }
%struct.PJ_LP = type { double, double }
%struct.PJ_XY = type { double, double }
%union.PJ_COORD = type { [4 x double] }

; Function Attrs: mustprogress uwtable
define internal { double, double } @_ZL16sterea_e_forward5PJ_LPP8PJconsts(double %0, double %1, ptr noundef %2) #0 {
  %4 = alloca %struct.PJ_XY, align 8
  %5 = alloca %struct.PJ_LP, align 8
  %6 = alloca ptr, align 8
  %7 = alloca %struct.PJ_XY, align 8
  %8 = alloca ptr, align 8
  %9 = alloca double, align 8
  %10 = alloca double, align 8
  %11 = alloca double, align 8
  %12 = alloca double, align 8
  %13 = alloca %struct.PJ_LP, align 8
  %14 = alloca %struct.PJ_LP, align 8
  %15 = alloca double, align 8
  %16 = alloca %union.PJ_COORD, align 8
  %17 = getelementptr inbounds { double, double }, ptr %5, i32 0, i32 0
  store double %0, ptr %17, align 8
  %18 = getelementptr inbounds { double, double }, ptr %5, i32 0, i32 1
  store double %1, ptr %18, align 8
  store ptr %2, ptr %6, align 8
  call void @llvm.memset.p0.i64(ptr align 8 %7, i8 0, i64 16, i1 false)
  %19 = load ptr, ptr %6, align 8
  %20 = getelementptr inbounds %struct.PJconsts, ptr %19, i32 0, i32 11
  %21 = load ptr, ptr %20, align 8
  store ptr %21, ptr %8, align 8
  %22 = load ptr, ptr %6, align 8
  %23 = getelementptr inbounds %struct.PJconsts, ptr %22, i32 0, i32 0
  %24 = load ptr, ptr %23, align 8
  call void @llvm.memcpy.p0.p0.i64(ptr align 8 %14, ptr align 8 %5, i64 16, i1 false)
  %25 = load ptr, ptr %8, align 8
  %26 = getelementptr inbounds %"struct.(anonymous namespace)::pj_opaque", ptr %25, i32 0, i32 4
  %27 = load ptr, ptr %26, align 8
  %28 = getelementptr inbounds { double, double }, ptr %14, i32 0, i32 0
  %29 = load double, ptr %28, align 8
  %30 = getelementptr inbounds { double, double }, ptr %14, i32 0, i32 1
  %31 = load double, ptr %30, align 8
  %32 = call { double, double } @_Z8pj_gaussP6pj_ctx5PJ_LPPKv(ptr noundef %24, double %29, double %31, ptr noundef %27)
  %33 = getelementptr inbounds { double, double }, ptr %13, i32 0, i32 0
  %34 = extractvalue { double, double } %32, 0
  store double %34, ptr %33, align 8
  %35 = getelementptr inbounds { double, double }, ptr %13, i32 0, i32 1
  %36 = extractvalue { double, double } %32, 1
  store double %36, ptr %35, align 8
  call void @llvm.memcpy.p0.p0.i64(ptr align 8 %5, ptr align 8 %13, i64 16, i1 false)
  %37 = getelementptr inbounds %struct.PJ_LP, ptr %5, i32 0, i32 1
  %38 = load double, ptr %37, align 8
  %39 = call double @sin(double noundef %38) #8
  store double %39, ptr %10, align 8
  %40 = getelementptr inbounds %struct.PJ_LP, ptr %5, i32 0, i32 1
  %41 = load double, ptr %40, align 8
  %42 = call double @cos(double noundef %41) #8
  store double %42, ptr %9, align 8
  %43 = getelementptr inbounds %struct.PJ_LP, ptr %5, i32 0, i32 0
  %44 = load double, ptr %43, align 8
  %45 = call double @cos(double noundef %44) #8
  store double %45, ptr %11, align 8
  %46 = load ptr, ptr %8, align 8
  %47 = getelementptr inbounds %"struct.(anonymous namespace)::pj_opaque", ptr %46, i32 0, i32 2
  %48 = load double, ptr %47, align 8
  %49 = load double, ptr %10, align 8
  %50 = call double @llvm.fmuladd.f64(double %48, double %49, double 1.000000e+00)
  %51 = load ptr, ptr %8, align 8
  %52 = getelementptr inbounds %"struct.(anonymous namespace)::pj_opaque", ptr %51, i32 0, i32 1
  %53 = load double, ptr %52, align 8
  %54 = load double, ptr %9, align 8
  %55 = fmul double %53, %54
  %56 = load double, ptr %11, align 8
  %57 = call double @llvm.fmuladd.f64(double %55, double %56, double %50)
  store double %57, ptr %15, align 8
  %58 = load double, ptr %15, align 8
  %59 = fcmp oeq double %58, 0.000000e+00
  br i1 %59, label %60, label %63

60:                                               ; preds = %3
  %61 = load ptr, ptr %6, align 8
  %62 = call i32 @proj_errno_set(ptr noundef %61, i32 noundef 2050)
  call void @_Z16proj_coord_errorv(ptr dead_on_unwind writable sret(%union.PJ_COORD) align 8 %16)
  call void @llvm.memcpy.p0.p0.i64(ptr align 8 %4, ptr align 8 %16, i64 16, i1 false)
  br label %97

63:                                               ; preds = %3
  %64 = load ptr, ptr %6, align 8
  %65 = getelementptr inbounds %struct.PJconsts, ptr %64, i32 0, i32 68
  %66 = load double, ptr %65, align 8
  %67 = load ptr, ptr %8, align 8
  %68 = getelementptr inbounds %"struct.(anonymous namespace)::pj_opaque", ptr %67, i32 0, i32 3
  %69 = load double, ptr %68, align 8
  %70 = fmul double %66, %69
  %71 = load double, ptr %15, align 8
  %72 = fdiv double %70, %71
  store double %72, ptr %12, align 8
  %73 = load double, ptr %12, align 8
  %74 = load double, ptr %9, align 8
  %75 = fmul double %73, %74
  %76 = getelementptr inbounds %struct.PJ_LP, ptr %5, i32 0, i32 0
  %77 = load double, ptr %76, align 8
  %78 = call double @sin(double noundef %77) #8
  %79 = fmul double %75, %78
  %80 = getelementptr inbounds %struct.PJ_XY, ptr %7, i32 0, i32 0
  store double %79, ptr %80, align 8
  %81 = load double, ptr %12, align 8
  %82 = load ptr, ptr %8, align 8
  %83 = getelementptr inbounds %"struct.(anonymous namespace)::pj_opaque", ptr %82, i32 0, i32 1
  %84 = load double, ptr %83, align 8
  %85 = load double, ptr %10, align 8
  %86 = load ptr, ptr %8, align 8
  %87 = getelementptr inbounds %"struct.(anonymous namespace)::pj_opaque", ptr %86, i32 0, i32 2
  %88 = load double, ptr %87, align 8
  %89 = load double, ptr %9, align 8
  %90 = fmul double %88, %89
  %91 = load double, ptr %11, align 8
  %92 = fmul double %90, %91
  %93 = fneg double %92
  %94 = call double @llvm.fmuladd.f64(double %84, double %85, double %93)
  %95 = fmul double %81, %94
  %96 = getelementptr inbounds %struct.PJ_XY, ptr %7, i32 0, i32 1
  store double %95, ptr %96, align 8
  call void @llvm.memcpy.p0.p0.i64(ptr align 8 %4, ptr align 8 %7, i64 16, i1 false)
  br label %97

97:                                               ; preds = %63, %60
  %98 = load { double, double }, ptr %4, align 8
  ret { double, double } %98
}