; Function Attrs: mustprogress uwtable
define internal { double, double } @_ZL16sterea_e_forward5PJ_LPP8PJconsts(double %0, double %1, ptr noundef %2) #0 {
  %4 = alloca %union.PJ_COORD, align 8
  %5 = getelementptr inbounds i8, ptr %2, i64 88
  %6 = load ptr, ptr %5, align 8
  %7 = load ptr, ptr %2, align 8
  %8 = getelementptr inbounds i8, ptr %6, i64 32
  %9 = load ptr, ptr %8, align 8
  %10 = tail call { double, double } @_Z8pj_gaussP6pj_ctx5PJ_LPPKv(ptr noundef %7, double %0, double %1, ptr noundef %9)
  %11 = extractvalue { double, double } %10, 0
  %12 = extractvalue { double, double } %10, 1
  %13 = tail call double @sin(double noundef %12) #9
  %14 = tail call double @cos(double noundef %12) #9
  %15 = tail call double @cos(double noundef %11) #9
  %16 = getelementptr inbounds i8, ptr %6, i64 16
  %17 = load double, ptr %16, align 8
  %18 = tail call double @llvm.fmuladd.f64(double %17, double %13, double 1.000000e+00)
  %19 = getelementptr inbounds i8, ptr %6, i64 8
  %20 = load double, ptr %19, align 8
  %21 = fmul double %14, %20
  %22 = tail call double @llvm.fmuladd.f64(double %21, double %15, double %18)
  %23 = fcmp oeq double %22, 0.000000e+00
  br i1 %23, label %24, label %26

24:                                               ; preds = %3
  %25 = tail call i32 @proj_errno_set(ptr noundef nonnull %2, i32 noundef 2050)
  call void @_Z16proj_coord_errorv(ptr dead_on_unwind nonnull writable sret(%union.PJ_COORD) align 8 %4)
  %.sroa.027.0.copyload = load double, ptr %4, align 8
  %.sroa.328.0..sroa_idx = getelementptr inbounds i8, ptr %4, i64 8
  %.sroa.328.0.copyload = load double, ptr %.sroa.328.0..sroa_idx, align 8
  br label %43

26:                                               ; preds = %3
  %27 = getelementptr inbounds i8, ptr %2, i64 488
  %28 = load double, ptr %27, align 8
  %29 = getelementptr inbounds i8, ptr %6, i64 24
  %30 = load double, ptr %29, align 8
  %31 = fmul double %28, %30
  %32 = fdiv double %31, %22
  %33 = fmul double %14, %32
  %34 = tail call double @sin(double noundef %11) #9
  %35 = fmul double %34, %33
  %36 = load double, ptr %19, align 8
  %37 = load double, ptr %16, align 8
  %38 = fneg double %37
  %39 = fmul double %14, %38
  %40 = fmul double %15, %39
  %41 = tail call double @llvm.fmuladd.f64(double %36, double %13, double %40)
  %42 = fmul double %32, %41
  br label %43

43:                                               ; preds = %26, %24
  %.sroa.027.0 = phi double [ %.sroa.027.0.copyload, %24 ], [ %35, %26 ]
  %.sroa.328.0 = phi double [ %.sroa.328.0.copyload, %24 ], [ %42, %26 ]
  %.fca.0.insert = insertvalue { double, double } poison, double %.sroa.027.0, 0
  %.fca.1.insert = insertvalue { double, double } %.fca.0.insert, double %.sroa.328.0, 1
  ret { double, double } %.fca.1.insert
}